target datalayout = "e-m:e-p270:32:32-p271:32:32-p272:64:64-i64:64-i128:128-f80:128-n8:16:32:64-S128"
target triple = "x86_64-unknown-linux-gnu"

%"struct.node::AssertionInfo" = type { ptr, ptr, ptr }
%"class.node::StreamListener" = type { ptr, ptr, ptr }
%struct.uv_buf_t = type { ptr, i64 }

@_ZZN4node10StreamPipe16WritableListener13OnStreamAllocEmE4args = internal constant %"struct.node::AssertionInfo" { ptr @.str.18, ptr @.str.9, ptr @.str.19 }, align 8

; Function Attrs: mustprogress nounwind uwtable
define dso_local { ptr, i64 } @_ZN4node10StreamPipe16WritableListener13OnStreamAllocEm(ptr noundef nonnull align 8 dereferenceable(24) %this, i64 noundef %suggested_size) unnamed_addr #4 align 2 {
entry:
  %retval = alloca %struct.uv_buf_t, align 8
  %this.addr = alloca ptr, align 8
  %suggested_size.addr = alloca i64, align 8
  store ptr %this, ptr %this.addr, align 8
  store i64 %suggested_size, ptr %suggested_size.addr, align 8
  %this1 = load ptr, ptr %this.addr, align 8
  br label %do.body

do.body:                                          ; preds = %entry
  %previous_listener_ = getelementptr inbounds %"class.node::StreamListener", ptr %this1, i32 0, i32 2
  %0 = load ptr, ptr %previous_listener_, align 8
  %cmp = icmp ne ptr %0, null
  %lnot = xor i1 %cmp, true
  %lnot2 = xor i1 %lnot, true
  %lnot3 = xor i1 %lnot2, true
  br i1 %lnot3, label %if.then, label %if.end

if.then:                                          ; preds = %do.body
  br label %do.body4

do.body4:                                         ; preds = %if.then
  call void @_ZN4node6AssertERKNS_13AssertionInfoE(ptr noundef nonnull align 8 dereferenceable(24) @_ZZN4node10StreamPipe16WritableListener13OnStreamAllocEmE4args)
  call void @abort() #11
  unreachable

do.end:                                           ; No predecessors!
  br label %if.end

if.end:                                           ; preds = %do.end, %do.body
  br label %do.end5

do.end5:                                          ; preds = %if.end
  %previous_listener_6 = getelementptr inbounds %"class.node::StreamListener", ptr %this1, i32 0, i32 2
  %1 = load ptr, ptr %previous_listener_6, align 8
  %2 = load i64, ptr %suggested_size.addr, align 8
  %vtable = load ptr, ptr %1, align 8
  %vfn = getelementptr inbounds ptr, ptr %vtable, i64 2
  %3 = load ptr, ptr %vfn, align 8
  %call = call { ptr, i64 } %3(ptr noundef nonnull align 8 dereferenceable(24) %1, i64 noundef %2)
  %4 = getelementptr inbounds { ptr, i64 }, ptr %retval, i32 0, i32 0
  %5 = extractvalue { ptr, i64 } %call, 0
  store ptr %5, ptr %4, align 8
  %6 = getelementptr inbounds { ptr, i64 }, ptr %retval, i32 0, i32 1
  %7 = extractvalue { ptr, i64 } %call, 1
  store i64 %7, ptr %6, align 8
  %8 = load { ptr, i64 }, ptr %retval, align 8
  ret { ptr, i64 } %8
}